; Function Attrs: inlinehint nounwind uwtable
define internal ptr @sock_gettimeout_method(ptr noundef readonly captures(none) %0, ptr readnone captures(none) %1) #8 {
  %3 = getelementptr i8, ptr %0, i64 40
  %.val = load i64, ptr %3, align 8, !tbaa !90
  %4 = icmp slt i64 %.val, 0
  br i1 %4, label %sock_gettimeout_impl.exit, label %5

5:                                                ; preds = %2
  %6 = tail call double @PyTime_AsSecondsDouble(i64 noundef %.val) #13
  %7 = tail call ptr @PyFloat_FromDouble(double noundef %6) #13
  br label %sock_gettimeout_impl.exit

sock_gettimeout_impl.exit:                        ; preds = %2, %5
  %.0.i = phi ptr [ %7, %5 ], [ @_Py_NoneStruct, %2 ]
  ret ptr %.0.i
}